target datalayout = "e-m:e-p270:32:32-p271:32:32-p272:64:64-i64:64-i128:128-f80:128-n8:16:32:64-S128"
target triple = "x86_64-unknown-linux-gnu"

%"struct.(anonymous namespace)::GetAllChildrenSink" = type { %"class.icu_75::ResourceSink", ptr }
%"class.icu_75::ResourceSink" = type { %"class.icu_75::UObject" }
%"class.icu_75::UObject" = type { ptr }

@_ZTVN6icu_7512ResourceSinkE = external unnamed_addr constant { [6 x ptr] }, align 8
@_ZTVN6icu_757UObjectE = external unnamed_addr constant { [5 x ptr] }, align 8

; Function Attrs: mustprogress nounwind uwtable
define linkonce_odr void @_ZN6icu_757UObjectC2Ev(ptr noundef nonnull align 8 dereferenceable(8) %this) unnamed_addr #0 comdat align 2 {
entry:
  %this.addr = alloca ptr, align 8
  store ptr %this, ptr %this.addr, align 8
  %this1 = load ptr, ptr %this.addr, align 8
  store ptr getelementptr inbounds ({ [5 x ptr] }, ptr @_ZTVN6icu_757UObjectE, i32 0, i32 0, i32 2), ptr %this1, align 8
  ret void
}

; Function Attrs: mustprogress nounwind uwtable
define linkonce_odr void @_ZN6icu_7512ResourceSinkC2Ev(ptr noundef nonnull align 8 dereferenceable(8) %this) unnamed_addr #0 comdat align 2 {
entry:
  %this.addr = alloca ptr, align 8
  store ptr %this, ptr %this.addr, align 8
  %this1 = load ptr, ptr %this.addr, align 8
  call void @_ZN6icu_757UObjectC2Ev(ptr noundef nonnull align 8 dereferenceable(8) %this1) #10
  store ptr getelementptr inbounds ({ [6 x ptr] }, ptr @_ZTVN6icu_7512ResourceSinkE, i32 0, i32 0, i32 2), ptr %this1, align 8
  ret void
}

; Function Attrs: mustprogress nounwind uwtable
define internal void @_ZN12_GLOBAL__N_118GetAllChildrenSinkD2Ev(ptr noundef nonnull align 8 dereferenceable(16) %this) unnamed_addr #0 align 2 {
entry:
  %this.addr = alloca ptr, align 8
  store ptr %this, ptr %this.addr, align 8
  %this1 = load ptr, ptr %this.addr, align 8
  call void @_ZN6icu_7512ResourceSinkD2Ev(ptr noundef nonnull align 8 dereferenceable(8) %this1) #10
  ret void
}

; Function Attrs: mustprogress uwtable
define internal void @_ZN12_GLOBAL__N_118GetAllChildrenSinkC2ERN6icu_7512ResourceSinkE(ptr noundef nonnull align 8 dereferenceable(16) %this, ptr noundef nonnull align 8 dereferenceable(8) %dest) unnamed_addr #1 align 2 {
entry:
  %this.addr = alloca ptr, align 8
  %dest.addr = alloca ptr, align 8
  store ptr %this, ptr %this.addr, align 8
  store ptr %dest, ptr %dest.addr, align 8
  %this1 = load ptr, ptr %this.addr, align 8
  call void @_ZN6icu_7512ResourceSinkC2Ev(ptr noundef nonnull align 8 dereferenceable(8) %this1)
  store ptr getelementptr inbounds ({ [6 x ptr] }, ptr @_ZTVN12_GLOBAL__N_118GetAllChildrenSinkE, i32 0, i32 0, i32 2), ptr %this1, align 8
  %dest2 = getelementptr inbounds %"struct.(anonymous namespace)::GetAllChildrenSink", ptr %this1, i32 0, i32 1
  %0 = load ptr, ptr %dest.addr, align 8
  store ptr %0, ptr %dest2, align 8
  ret void
}

; Function Attrs: mustprogress uwtable
define void @ures_getAllChildrenWithFallback_75(ptr noundef %bundle, ptr noundef %path, ptr noundef nonnull align 8 dereferenceable(8) %sink, ptr noundef nonnull align 4 dereferenceable(4) %errorCode) #1 personality ptr @__gxx_personality_v0 {
entry:
  %bundle.addr = alloca ptr, align 8
  %path.addr = alloca ptr, align 8
  %sink.addr = alloca ptr, align 8
  %errorCode.addr = alloca ptr, align 8
  %allChildrenSink = alloca %"struct.(anonymous namespace)::GetAllChildrenSink", align 8
  %exn.slot = alloca ptr, align 8
  %ehselector.slot = alloca i32, align 4
  store ptr %bundle, ptr %bundle.addr, align 8
  store ptr %path, ptr %path.addr, align 8
  store ptr %sink, ptr %sink.addr, align 8
  store ptr %errorCode, ptr %errorCode.addr, align 8
  %0 = load ptr, ptr %sink.addr, align 8
  call void @_ZN12_GLOBAL__N_118GetAllChildrenSinkC2ERN6icu_7512ResourceSinkE(ptr noundef nonnull align 8 dereferenceable(16) %allChildrenSink, ptr noundef nonnull align 8 dereferenceable(8) %0)
  %1 = load ptr, ptr %bundle.addr, align 8
  %2 = load ptr, ptr %path.addr, align 8
  %3 = load ptr, ptr %errorCode.addr, align 8
  invoke void @ures_getAllItemsWithFallback_75(ptr noundef %1, ptr noundef %2, ptr noundef nonnull align 8 dereferenceable(8) %allChildrenSink, ptr noundef nonnull align 4 dereferenceable(4) %3)
          to label %invoke.cont unwind label %lpad

invoke.cont:                                      ; preds = %entry
  call void @_ZN12_GLOBAL__N_118GetAllChildrenSinkD2Ev(ptr noundef nonnull align 8 dereferenceable(16) %allChildrenSink) #10
  ret void

lpad:                                             ; preds = %entry
  %4 = landingpad { ptr, i32 }
          cleanup
  %5 = extractvalue { ptr, i32 } %4, 0
  store ptr %5, ptr %exn.slot, align 8
  %6 = extractvalue { ptr, i32 } %4, 1
  store i32 %6, ptr %ehselector.slot, align 4
  call void @_ZN12_GLOBAL__N_118GetAllChildrenSinkD2Ev(ptr noundef nonnull align 8 dereferenceable(16) %allChildrenSink) #10
  br label %eh.resume

eh.resume:                                        ; preds = %lpad
  %exn = load ptr, ptr %exn.slot, align 8
  %sel = load i32, ptr %ehselector.slot, align 4
  %lpad.val = insertvalue { ptr, i32 } poison, ptr %exn, 0
  %lpad.val1 = insertvalue { ptr, i32 } %lpad.val, i32 %sel, 1
  resume { ptr, i32 } %lpad.val1
}