; Function Attrs: mustprogress uwtable
define void @ures_getAllChildrenWithFallback_75(ptr noundef %bundle, ptr noundef %path, ptr noundef nonnull align 8 dereferenceable(8) %sink, ptr noundef nonnull align 4 dereferenceable(4) %errorCode) local_unnamed_addr #1 personality ptr @__gxx_personality_v0 {
entry:
  %allChildrenSink = alloca %"struct.(anonymous namespace)::GetAllChildrenSink", align 8
  store ptr getelementptr inbounds ({ [6 x ptr] }, ptr @_ZTVN12_GLOBAL__N_118GetAllChildrenSinkE, i64 0, i32 0, i64 2), ptr %allChildrenSink, align 8
  %dest2.i = getelementptr inbounds i8, ptr %allChildrenSink, i64 8
  store ptr %sink, ptr %dest2.i, align 8
  invoke void @ures_getAllItemsWithFallback_75(ptr noundef %bundle, ptr noundef %path, ptr noundef nonnull align 8 dereferenceable(8) %allChildrenSink, ptr noundef nonnull align 4 dereferenceable(4) %errorCode)
          to label %invoke.cont unwind label %lpad

invoke.cont:                                      ; preds = %entry
  call void @_ZN6icu_7512ResourceSinkD2Ev(ptr noundef nonnull align 8 dereferenceable(8) %allChildrenSink) #20
  ret void

lpad:                                             ; preds = %entry
  %0 = landingpad { ptr, i32 }
          cleanup
  call void @_ZN6icu_7512ResourceSinkD2Ev(ptr noundef nonnull align 8 dereferenceable(8) %allChildrenSink) #20
  resume { ptr, i32 } %0
}